	.text
	.file	"input4.c"
	.globl	add                             # -- Begin function add
	.p2align	4, 0x90
	.type	add,@function
add:                                    # @add
	.cfi_startproc
# %bb.0:
	pushq	%rbp
	.cfi_def_cfa_offset 16
	.cfi_offset %rbp, -16
	movq	%rsp, %rbp
	.cfi_def_cfa_register %rbp
                                        # kill: def $esi killed $esi def $rsi
                                        # kill: def $edi killed $edi def $rdi
	movl	%edi, -8(%rbp)
	movl	%esi, -4(%rbp)
	leal	(%rdi,%rsi), %eax
	popq	%rbp
	.cfi_def_cfa %rsp, 8
	retq
.Lfunc_end0:
	.size	add, .Lfunc_end0-add
	.cfi_endproc
                                        # -- End function
	.globl	main                            # -- Begin function main
	.p2align	4, 0x90
	.type	main,@function
main:                                   # @main
	.cfi_startproc
# %bb.0:
	pushq	%rbp
	.cfi_def_cfa_offset 16
	.cfi_offset %rbp, -16
	movq	%rsp, %rbp
	.cfi_def_cfa_register %rbp
	subq	$16, %rsp
	movl	$0, -16(%rbp)
	movl	$1, -8(%rbp)
	movl	$2, -4(%rbp)
	movl	$.L.str, %edi
	movl	$1, %esi
	xorl	%eax, %eax
	callq	printf@PLT
	movl	-4(%rbp), %esi
	movl	$.L.str.1, %edi
	xorl	%eax, %eax
	callq	printf@PLT
	movl	-8(%rbp), %edi
	movl	-4(%rbp), %esi
	callq	add
	movl	%eax, -12(%rbp)
	movl	$.L.str.2, %edi
	movl	%eax, %esi
	xorl	%eax, %eax
	callq	printf@PLT
	xorl	%eax, %eax
	addq	$16, %rsp
	popq	%rbp
	.cfi_def_cfa %rsp, 8
	retq
.Lfunc_end1:
	.size	main, .Lfunc_end1-main
	.cfi_endproc
                                        # -- End function
	.type	.L.str,@object                  # @.str
	.section	.rodata.str1.1,"aMS",@progbits,1
.L.str:
	.asciz	"a = %d\n"
	.size	.L.str, 8

	.type	.L.str.1,@object                # @.str.1
.L.str.1:
	.asciz	"b = %d\n"
	.size	.L.str.1, 8

	.type	.L.str.2,@object                # @.str.2
.L.str.2:
	.asciz	"a + b = %d\n"
	.size	.L.str.2, 12

	.ident	"Ubuntu clang version 14.0.0-1ubuntu1"
	.section	".note.GNU-stack","",@progbits
